target datalayout = "e-m:e-p270:32:32-p271:32:32-p272:64:64-i64:64-i128:128-f80:128-n8:16:32:64-S128"
target triple = "x86_64-pc-linux-gnu"

%struct.SurfaceDataRasInfo = type { %struct.SurfaceDataBounds, ptr, i32, i32, i32, i32, ptr, ptr, ptr, ptr, ptr, ptr, i32, %union.anon.0 }
%struct.SurfaceDataBounds = type { i32, i32, i32, i32 }
%union.anon.0 = type { ptr, [56 x i8] }

; Function Attrs: nounwind uwtable
define hidden void @IntRgbxToIntArgbScaleConvert(ptr noundef %0, ptr noundef %1, i32 noundef %2, i32 noundef %3, i32 noundef %4, i32 noundef %5, i32 noundef %6, i32 noundef %7, i32 noundef %8, ptr noundef %9, ptr noundef %10, ptr noundef %11, ptr noundef %12) #1 {
  %14 = alloca ptr, align 8
  %15 = alloca ptr, align 8
  %16 = alloca i32, align 4
  %17 = alloca i32, align 4
  %18 = alloca i32, align 4
  %19 = alloca i32, align 4
  %20 = alloca i32, align 4
  %21 = alloca i32, align 4
  %22 = alloca i32, align 4
  %23 = alloca ptr, align 8
  %24 = alloca ptr, align 8
  %25 = alloca ptr, align 8
  %26 = alloca ptr, align 8
  %27 = alloca ptr, align 8
  %28 = alloca ptr, align 8
  %29 = alloca i32, align 4
  %30 = alloca i32, align 4
  %31 = alloca i32, align 4
  %32 = alloca i32, align 4
  %33 = alloca i32, align 4
  %34 = alloca i32, align 4
  store ptr %0, ptr %14, align 8
  store ptr %1, ptr %15, align 8
  store i32 %2, ptr %16, align 4
  store i32 %3, ptr %17, align 4
  store i32 %4, ptr %18, align 4
  store i32 %5, ptr %19, align 4
  store i32 %6, ptr %20, align 4
  store i32 %7, ptr %21, align 4
  store i32 %8, ptr %22, align 4
  store ptr %9, ptr %23, align 8
  store ptr %10, ptr %24, align 8
  store ptr %11, ptr %25, align 8
  store ptr %12, ptr %26, align 8
  br label %35

35:                                               ; preds = %13
  %36 = load ptr, ptr %15, align 8
  store ptr %36, ptr %28, align 8
  %37 = load ptr, ptr %23, align 8
  %38 = getelementptr inbounds %struct.SurfaceDataRasInfo, ptr %37, i32 0, i32 4
  %39 = load i32, ptr %38, align 8
  store i32 %39, ptr %29, align 4
  %40 = load ptr, ptr %24, align 8
  %41 = getelementptr inbounds %struct.SurfaceDataRasInfo, ptr %40, i32 0, i32 4
  %42 = load i32, ptr %41, align 8
  store i32 %42, ptr %30, align 4
  %43 = load i32, ptr %16, align 4
  %44 = mul i32 %43, 4
  %45 = load i32, ptr %30, align 4
  %46 = sub i32 %45, %44
  store i32 %46, ptr %30, align 4
  br label %47

47:                                               ; preds = %98, %35
  %48 = load i32, ptr %16, align 4
  store i32 %48, ptr %31, align 4
  %49 = load i32, ptr %18, align 4
  store i32 %49, ptr %32, align 4
  %50 = load ptr, ptr %14, align 8
  %51 = ptrtoint ptr %50 to i64
  %52 = load i32, ptr %19, align 4
  %53 = load i32, ptr %22, align 4
  %54 = ashr i32 %52, %53
  %55 = sext i32 %54 to i64
  %56 = load i32, ptr %29, align 4
  %57 = sext i32 %56 to i64
  %58 = mul nsw i64 %55, %57
  %59 = add nsw i64 %51, %58
  %60 = inttoptr i64 %59 to ptr
  store ptr %60, ptr %27, align 8
  br label %61

61:                                               ; preds = %84, %47
  %62 = load i32, ptr %32, align 4
  %63 = load i32, ptr %22, align 4
  %64 = ashr i32 %62, %63
  store i32 %64, ptr %33, align 4
  br label %65

65:                                               ; preds = %61
  %66 = load ptr, ptr %27, align 8
  %67 = load i32, ptr %33, align 4
  %68 = sext i32 %67 to i64
  %69 = getelementptr inbounds i32, ptr %66, i64 %68
  %70 = load i32, ptr %69, align 4
  %71 = ashr i32 %70, 8
  store i32 %71, ptr %34, align 4
  %72 = load i32, ptr %34, align 4
  %73 = or i32 -16777216, %72
  %74 = load ptr, ptr %28, align 8
  %75 = getelementptr inbounds i32, ptr %74, i64 0
  store i32 %73, ptr %75, align 4
  br label %76

76:                                               ; preds = %65
  %77 = load ptr, ptr %28, align 8
  %78 = ptrtoint ptr %77 to i64
  %79 = add nsw i64 %78, 4
  %80 = inttoptr i64 %79 to ptr
  store ptr %80, ptr %28, align 8
  %81 = load i32, ptr %20, align 4
  %82 = load i32, ptr %32, align 4
  %83 = add nsw i32 %82, %81
  store i32 %83, ptr %32, align 4
  br label %84

84:                                               ; preds = %76
  %85 = load i32, ptr %31, align 4
  %86 = add i32 %85, -1
  store i32 %86, ptr %31, align 4
  %87 = icmp ugt i32 %86, 0
  br i1 %87, label %61, label %88, !llvm.loop !17

88:                                               ; preds = %84
  %89 = load ptr, ptr %28, align 8
  %90 = ptrtoint ptr %89 to i64
  %91 = load i32, ptr %30, align 4
  %92 = sext i32 %91 to i64
  %93 = add nsw i64 %90, %92
  %94 = inttoptr i64 %93 to ptr
  store ptr %94, ptr %28, align 8
  %95 = load i32, ptr %21, align 4
  %96 = load i32, ptr %19, align 4
  %97 = add nsw i32 %96, %95
  store i32 %97, ptr %19, align 4
  br label %98

98:                                               ; preds = %88
  %99 = load i32, ptr %17, align 4
  %100 = add i32 %99, -1
  store i32 %100, ptr %17, align 4
  %101 = icmp ugt i32 %100, 0
  br i1 %101, label %47, label %102, !llvm.loop !18

102:                                              ; preds = %98
  br label %103

103:                                              ; preds = %102
  ret void
}